; Function Attrs: mustprogress nounwind uwtable
define void @_ZN6google8protobuf5FieldD2Ev(ptr noundef nonnull align 8 dereferenceable(96) %this) unnamed_addr #6 align 2 personality ptr @__gxx_personality_v0 {
entry:
  %_internal_metadata_ = getelementptr inbounds i8, ptr %this, i64 8
  %0 = load i64, ptr %_internal_metadata_, align 8
  %and.i.i = and i64 %0, 1
  %tobool.i.not.i = icmp eq i64 %and.i.i, 0
  br i1 %tobool.i.not.i, label %invoke.cont, label %if.then.i

if.then.i:                                        ; preds = %entry
  invoke void @_ZN6google8protobuf8internal16InternalMetadata21DeleteOutOfLineHelperINS0_15UnknownFieldSetEEEvv(ptr noundef nonnull align 8 dereferenceable(8) %_internal_metadata_)
          to label %invoke.cont unwind label %terminate.lpad

invoke.cont:                                      ; preds = %entry, %if.then.i
  %1 = getelementptr inbounds i8, ptr %this, i64 16
  %name_.i = getelementptr inbounds i8, ptr %this, i64 40
  invoke void @_ZN6google8protobuf8internal14ArenaStringPtr7DestroyEv(ptr noundef nonnull align 8 dereferenceable(8) %name_.i)
          to label %.noexc1 unwind label %terminate.lpad

.noexc1:                                          ; preds = %invoke.cont
  %type_url_.i = getelementptr inbounds i8, ptr %this, i64 48
  invoke void @_ZN6google8protobuf8internal14ArenaStringPtr7DestroyEv(ptr noundef nonnull align 8 dereferenceable(8) %type_url_.i)
          to label %.noexc2 unwind label %terminate.lpad

.noexc2:                                          ; preds = %.noexc1
  %json_name_.i = getelementptr inbounds i8, ptr %this, i64 56
  invoke void @_ZN6google8protobuf8internal14ArenaStringPtr7DestroyEv(ptr noundef nonnull align 8 dereferenceable(8) %json_name_.i)
          to label %.noexc3 unwind label %terminate.lpad

.noexc3:                                          ; preds = %.noexc2
  %default_value_.i = getelementptr inbounds i8, ptr %this, i64 64
  invoke void @_ZN6google8protobuf8internal14ArenaStringPtr7DestroyEv(ptr noundef nonnull align 8 dereferenceable(8) %default_value_.i)
          to label %.noexc4 unwind label %terminate.lpad

.noexc4:                                          ; preds = %.noexc3
  %2 = load ptr, ptr %1, align 8
  %cmp.i.not.i.i.i = icmp eq ptr %2, null
  br i1 %cmp.i.not.i.i.i, label %invoke.cont2, label %if.end.i.i.i

if.end.i.i.i:                                     ; preds = %.noexc4
  invoke void @_ZN6google8protobuf8internal20RepeatedPtrFieldBase13DestroyProtosEv(ptr noundef nonnull align 8 dereferenceable(24) %1)
          to label %invoke.cont2 unwind label %terminate.lpad.i.i.i

terminate.lpad.i.i.i:                             ; preds = %if.end.i.i.i
  %3 = landingpad { ptr, i32 }
          catch ptr null
  %4 = extractvalue { ptr, i32 } %3, 0
  tail call void @__clang_call_terminate(ptr %4) #19
  unreachable

invoke.cont2:                                     ; preds = %if.end.i.i.i, %.noexc4
  ret void

terminate.lpad:                                   ; preds = %.noexc3, %.noexc2, %.noexc1, %invoke.cont, %if.then.i
  %5 = landingpad { ptr, i32 }
          catch ptr null
  %6 = extractvalue { ptr, i32 } %5, 0
  tail call void @__clang_call_terminate(ptr %6) #19
  unreachable
}